; Function Attrs: nounwind uwtable
define hidden range(i64 -3, -9223372036854775808) i64 @_PyDictKeys_StringLookupSplit(ptr noundef readonly captures(none) %0, ptr noundef %1) local_unnamed_addr #0 {
  %3 = getelementptr i8, ptr %1, i64 24
  %.val = load i64, ptr %3, align 8, !tbaa !55
  %4 = icmp eq i64 %.val, -1
  br i1 %4, label %5, label %10

5:                                                ; preds = %2
  %6 = load ptr, ptr getelementptr inbounds nuw (i8, ptr @PyUnicode_Type, i64 120), align 8, !tbaa !139
  %7 = tail call i64 %6(ptr noundef nonnull %1) #23
  %8 = icmp eq i64 %7, -1
  br i1 %8, label %9, label %10

9:                                                ; preds = %5
  tail call void @PyErr_Clear() #23
  br label %12

10:                                               ; preds = %5, %2
  %.0 = phi i64 [ %7, %5 ], [ %.val, %2 ]
  %11 = tail call fastcc range(i64 -1, -9223372036854775808) i64 @unicodekeys_lookup_unicode(ptr noundef readonly %0, ptr noundef nonnull readonly %1, i64 noundef range(i64 0, -1) %.0)
  br label %12

12:                                               ; preds = %10, %9
  %.07 = phi i64 [ -3, %9 ], [ %11, %10 ]
  ret i64 %.07
}